target datalayout = "e-m:e-p270:32:32-p271:32:32-p272:64:64-i64:64-i128:128-f80:128-n8:16:32:64-S128"
target triple = "x86_64-pc-linux-gnu"

%struct.x509_trust_st = type { i32, i32, ptr, ptr, i32, ptr }

@.str = private unnamed_addr constant [36 x i8] c"../openssl/crypto/x509/x509_trust.c\00", align 1

; Function Attrs: nounwind uwtable
define internal void @trtable_free(ptr noundef %0) #0 {
  %2 = alloca ptr, align 8
  store ptr %0, ptr %2, align 8, !tbaa !11
  %3 = load ptr, ptr %2, align 8, !tbaa !11
  %4 = icmp eq ptr %3, null
  br i1 %4, label %5, label %6

5:                                                ; preds = %1
  br label %24

6:                                                ; preds = %1
  %7 = load ptr, ptr %2, align 8, !tbaa !11
  %8 = getelementptr inbounds nuw %struct.x509_trust_st, ptr %7, i32 0, i32 1
  %9 = load i32, ptr %8, align 4, !tbaa !59
  %10 = and i32 %9, 1
  %11 = icmp ne i32 %10, 0
  br i1 %11, label %12, label %24

12:                                               ; preds = %6
  %13 = load ptr, ptr %2, align 8, !tbaa !11
  %14 = getelementptr inbounds nuw %struct.x509_trust_st, ptr %13, i32 0, i32 1
  %15 = load i32, ptr %14, align 4, !tbaa !59
  %16 = and i32 %15, 2
  %17 = icmp ne i32 %16, 0
  br i1 %17, label %18, label %22

18:                                               ; preds = %12
  %19 = load ptr, ptr %2, align 8, !tbaa !11
  %20 = getelementptr inbounds nuw %struct.x509_trust_st, ptr %19, i32 0, i32 3
  %21 = load ptr, ptr %20, align 8, !tbaa !60
  call void @CRYPTO_free(ptr noundef %21, ptr noundef @.str, i32 noundef 190)
  br label %22

22:                                               ; preds = %18, %12
  %23 = load ptr, ptr %2, align 8, !tbaa !11
  call void @CRYPTO_free(ptr noundef %23, ptr noundef @.str, i32 noundef 191)
  br label %24

24:                                               ; preds = %5, %22, %6
  ret void
}