; Function Attrs: nounwind uwtable
define internal void @trtable_free(ptr noundef %0) #2 {
  %2 = icmp eq ptr %0, null
  br i1 %2, label %13, label %3

3:                                                ; preds = %1
  %4 = getelementptr inbounds nuw i8, ptr %0, i64 4
  %5 = load i32, ptr %4, align 4, !tbaa !51
  %6 = and i32 %5, 1
  %.not = icmp eq i32 %6, 0
  br i1 %.not, label %13, label %7

7:                                                ; preds = %3
  %8 = and i32 %5, 2
  %.not5 = icmp eq i32 %8, 0
  br i1 %.not5, label %12, label %9

9:                                                ; preds = %7
  %10 = getelementptr inbounds nuw i8, ptr %0, i64 16
  %11 = load ptr, ptr %10, align 8, !tbaa !52
  tail call void @CRYPTO_free(ptr noundef %11, ptr noundef nonnull @.str, i32 noundef 190) #6
  br label %12

12:                                               ; preds = %9, %7
  tail call void @CRYPTO_free(ptr noundef nonnull %0, ptr noundef nonnull @.str, i32 noundef 191) #6
  br label %13

13:                                               ; preds = %1, %12, %3
  ret void
}